Certificate:
    Data:
        Version: 3 (0x2)
        Serial Number: 1 (0x1)
        Signature Algorithm: sha256WithRSAEncryption
        Issuer: CN=devcert
        Validity
            Not Before: Apr 27 07:58:37 2020 GMT
            Not After : Jul 31 07:58:37 2022 GMT
        Subject: CN=localhost
        Subject Public Key Info:
            Public Key Algorithm: rsaEncryption
                RSA Public-Key: (2048 bit)
                Modulus:
                    00:a3:07:39:cc:2f:64:ae:1a:62:16:bf:66:4e:23:
                    54:48:47:07:5a:89:fe:51:dd:6a:3f:31:d1:d0:d6:
                    83:b2:f9:7f:33:48:48:ca:07:e6:7f:2b:fb:27:ea:
                    49:67:44:c2:9c:4c:8a:46:75:17:67:bf:4d:b5:89:
                    ce:1c:f9:8f:e5:bb:1c:54:bd:96:85:e2:a1:a5:25:
                    ad:e6:25:d3:73:bd:a1:c4:71:52:a3:1b:ec:3c:5b:
                    57:4a:ba:ec:6f:56:4d:2a:af:9e:a3:bf:09:03:21:
                    05:69:b2:b9:5b:dc:f6:b6:81:60:03:16:2c:96:bf:
                    78:6c:90:aa:a2:21:9b:9f:af:58:09:bf:4b:f4:32:
                    14:0e:27:f5:4d:a0:54:f5:72:83:a2:f2:f9:05:3f:
                    77:25:20:ca:99:ab:19:ef:33:03:a8:01:6d:92:96:
                    69:57:ed:7f:b0:24:03:e1:08:05:14:c2:6c:3a:af:
                    d6:34:9b:8f:f9:c3:2f:65:c7:e7:7c:31:97:c6:97:
                    cc:81:c9:e3:b9:8c:22:6d:87:d5:31:b3:ab:89:72:
                    fd:b4:eb:71:09:cc:3f:d8:59:13:ab:f6:0f:7e:bb:
                    f0:53:ee:d0:e3:e4:4c:6e:f1:07:ed:d8:70:2c:fc:
                    ee:14:d6:5f:be:bb:ec:84:91:9e:76:ec:42:38:80:
                    15:cf
                Exponent: 65537 (0x10001)
        X509v3 extensions:
            X509v3 Basic Constraints: critical
                CA:FALSE
            X509v3 Subject Key Identifier: 
                FE:0D:A1:43:4E:2D:F7:7D:BD:8C:11:E4:AD:52:C0:F6:63:0A:A4:FF
            X509v3 Authority Key Identifier: 
                keyid:BE:86:41:02:3B:43:1A:34:D4:FD:DD:24:7E:89:B7:2F:56:56:2B:07
                DirName:/CN=devcert
                serial:68:C8:C5:67:A0:27:DB:7D:BF:43:02:9B:8F:A1:5A:F5:0F:9B:35:F4

            X509v3 Key Usage: critical
                Digital Signature, Key Encipherment
            X509v3 Extended Key Usage: 
                TLS Web Server Authentication
            X509v3 Subject Alternative Name: 
                DNS:localhost, DNS:*.localhost
    Signature Algorithm: sha256WithRSAEncryption
         82:65:77:d9:01:f1:b6:ff:d5:1d:27:1b:1b:24:2d:56:a3:23:
         f0:17:b3:69:b3:b9:8b:85:3c:43:6b:2c:b4:a4:10:84:dd:9f:
         a6:83:55:db:4c:13:a3:6e:e4:27:45:00:00:e7:28:35:f3:87:
         62:b3:6d:22:81:24:27:ea:fb:01:b8:11:f0:27:3c:44:42:4c:
         5b:b6:ae:a4:73:7c:c8:07:94:03:78:f2:77:89:b1:ff:89:4d:
         b6:f7:27:9b:8d:ac:d1:04:d3:54:49:9a:4d:bf:ad:ed:95:26:
         c8:87:94:ea:19:0d:63:97:4a:80:41:14:77:b3:ad:4a:50:bc:
         69:80:20:d9:3a:b9:c7:7c:09:cc:d6:65:dd:21:f6:12:8b:6a:
         27:63:67:8f:81:5c:aa:0a:e3:47:40:49:4a:c3:b9:09:0f:44:
         db:98:bc:cc:73:2c:50:cc:76:4c:59:e3:95:19:07:d1:a3:4a:
         e8:a3:53:bc:9a:d2:5e:15:9f:5b:7f:a7:a1:29:82:b5:1b:87:
         66:9d:3e:c9:f7:e1:50:64:f0:f4:65:14:d1:77:2f:a1:b1:77:
         5d:37:c4:ec:c1:17:15:e4:0c:73:ee:9a:9b:47:2b:19:ca:91:
         46:60:12:08:7e:ba:96:20:6c:76:74:a2:9d:b6:9c:5b:74:25:
         9f:f8:a1:11
-----BEGIN CERTIFICATE-----
MIIDaTCCAlGgAwIBAgIBATANBgkqhkiG9w0BAQsFADASMRAwDgYDVQQDDAdkZXZj
ZXJ0MB4XDTIwMDQyNzA3NTgzN1oXDTIyMDczMTA3NTgzN1owFDESMBAGA1UEAwwJ
bG9jYWxob3N0MIIBIjANBgkqhkiG9w0BAQEFAAOCAQ8AMIIBCgKCAQEAowc5zC9k
rhpiFr9mTiNUSEcHWon+Ud1qPzHR0NaDsvl/M0hIygfmfyv7J+pJZ0TCnEyKRnUX
Z79NtYnOHPmP5bscVL2WheKhpSWt5iXTc72hxHFSoxvsPFtXSrrsb1ZNKq+eo78J
AyEFabK5W9z2toFgAxYslr94bJCqoiGbn69YCb9L9DIUDif1TaBU9XKDovL5BT93
JSDKmasZ7zMDqAFtkpZpV+1/sCQD4QgFFMJsOq/WNJuP+cMvZcfnfDGXxpfMgcnj
uYwibYfVMbOriXL9tOtxCcw/2FkTq/YPfrvwU+7Q4+RMbvEH7dhwLPzuFNZfvrvs
hJGeduxCOIAVzwIDAQABo4HHMIHEMAwGA1UdEwEB/wQCMAAwHQYDVR0OBBYEFP4N
oUNOLfd9vYwR5K1SwPZjCqT/ME0GA1UdIwRGMESAFL6GQQI7Qxo01P3dJH6Jty9W
VisHoRakFDASMRAwDgYDVQQDDAdkZXZjZXJ0ghRoyMVnoCfbfb9DApuPoVr1D5s1
9DAOBgNVHQ8BAf8EBAMCBaAwEwYDVR0lBAwwCgYIKwYBBQUHAwEwIQYDVR0RBBow
GIIJbG9jYWxob3N0ggsqLmxvY2FsaG9zdDANBgkqhkiG9w0BAQsFAAOCAQEAgmV3
2QHxtv/VHScbGyQtVqMj8BezabO5i4U8Q2sstKQQhN2fpoNV20wTo27kJ0UAAOco
NfOHYrNtIoEkJ+r7AbgR8Cc8REJMW7aupHN8yAeUA3jyd4mx/4lNtvcnm42s0QTT
VEmaTb+t7ZUmyIeU6hkNY5dKgEEUd7OtSlC8aYAg2Tq5x3wJzNZl3SH2EotqJ2Nn
j4FcqgrjR0BJSsO5CQ9E25i8zHMsUMx2TFnjlRkH0aNK6KNTvJrSXhWfW3+noSmC
tRuHZp0+yffhUGTw9GUU0XcvobF3XTfE7MEXFeQMc+6am0crGcqRRmASCH66liBs
dnSinbacW3Qln/ihEQ==
-----END CERTIFICATE-----
